target datalayout = "e-m:e-p270:32:32-p271:32:32-p272:64:64-i64:64-i128:128-f80:128-n8:16:32:64-S128"
target triple = "x86_64-pc-linux-gnu"

%"struct.duckdb_miniz::mz_stream_s" = type { ptr, i32, i64, ptr, i32, i64, ptr, ptr, ptr, ptr, ptr, i32, i64, i64 }

; Function Attrs: mustprogress uwtable
define noundef i32 @_ZN12duckdb_miniz13mz_inflateEndEPNS_11mz_stream_sE(ptr noundef %0) #5 {
  %2 = alloca i32, align 4
  %3 = alloca ptr, align 8
  store ptr %0, ptr %3, align 8, !tbaa !20
  %4 = load ptr, ptr %3, align 8, !tbaa !20
  %5 = icmp ne ptr %4, null
  br i1 %5, label %7, label %6

6:                                                ; preds = %1
  store i32 -2, ptr %2, align 4
  br label %25

7:                                                ; preds = %1
  %8 = load ptr, ptr %3, align 8, !tbaa !20
  %9 = getelementptr inbounds nuw %"struct.duckdb_miniz::mz_stream_s", ptr %8, i32 0, i32 7
  %10 = load ptr, ptr %9, align 8, !tbaa !33
  %11 = icmp ne ptr %10, null
  br i1 %11, label %12, label %24

12:                                               ; preds = %7
  %13 = load ptr, ptr %3, align 8, !tbaa !20
  %14 = getelementptr inbounds nuw %"struct.duckdb_miniz::mz_stream_s", ptr %13, i32 0, i32 9
  %15 = load ptr, ptr %14, align 8, !tbaa !31
  %16 = load ptr, ptr %3, align 8, !tbaa !20
  %17 = getelementptr inbounds nuw %"struct.duckdb_miniz::mz_stream_s", ptr %16, i32 0, i32 10
  %18 = load ptr, ptr %17, align 8, !tbaa !32
  %19 = load ptr, ptr %3, align 8, !tbaa !20
  %20 = getelementptr inbounds nuw %"struct.duckdb_miniz::mz_stream_s", ptr %19, i32 0, i32 7
  %21 = load ptr, ptr %20, align 8, !tbaa !33
  call void %15(ptr noundef %18, ptr noundef %21)
  %22 = load ptr, ptr %3, align 8, !tbaa !20
  %23 = getelementptr inbounds nuw %"struct.duckdb_miniz::mz_stream_s", ptr %22, i32 0, i32 7
  store ptr null, ptr %23, align 8, !tbaa !33
  br label %24

24:                                               ; preds = %12, %7
  store i32 0, ptr %2, align 4
  br label %25

25:                                               ; preds = %24, %6
  %26 = load i32, ptr %2, align 4
  ret i32 %26
}